target datalayout = "e-m:e-p270:32:32-p271:32:32-p272:64:64-i64:64-i128:128-f80:128-n8:16:32:64-S128"
target triple = "x86_64-pc-linux-gnu"

; Function Attrs: nounwind uwtable
define internal i32 @zueci_ascii_u(ptr noundef %0, i32 noundef %1, i32 noundef %2, ptr noundef %3) #0 {
  %5 = alloca i32, align 4
  %6 = alloca ptr, align 8
  %7 = alloca i32, align 4
  %8 = alloca i32, align 4
  %9 = alloca ptr, align 8
  store ptr %0, ptr %6, align 8
  store i32 %1, ptr %7, align 4
  store i32 %2, ptr %8, align 4
  store ptr %3, ptr %9, align 8
  %10 = load ptr, ptr %6, align 8
  %11 = load i8, ptr %10, align 1
  %12 = zext i8 %11 to i32
  %13 = icmp slt i32 %12, 128
  br i1 %13, label %18, label %14

14:                                               ; preds = %4
  %15 = load i32, ptr %8, align 4
  %16 = and i32 %15, 1
  %17 = icmp ne i32 %16, 0
  br i1 %17, label %18, label %23

18:                                               ; preds = %14, %4
  %19 = load ptr, ptr %6, align 8
  %20 = load i8, ptr %19, align 1
  %21 = zext i8 %20 to i32
  %22 = load ptr, ptr %9, align 8
  store i32 %21, ptr %22, align 4
  store i32 1, ptr %5, align 4
  br label %24

23:                                               ; preds = %14
  store i32 0, ptr %5, align 4
  br label %24

24:                                               ; preds = %23, %18
  %25 = load i32, ptr %5, align 4
  ret i32 %25
}