; Function Attrs: mustprogress nofree norecurse nosync nounwind willreturn memory(argmem: readwrite) uwtable
define internal noundef i32 @zueci_ascii_u(ptr nocapture noundef readonly %0, i32 %1, i32 noundef %2, ptr nocapture noundef writeonly %3) #6 {
  %5 = load i8, ptr %0, align 1
  %6 = icmp slt i8 %5, 0
  %7 = and i32 %2, 1
  %.not = icmp eq i32 %7, 0
  %or.cond = and i1 %.not, %6
  br i1 %or.cond, label %10, label %8

8:                                                ; preds = %4
  %9 = zext i8 %5 to i32
  store i32 %9, ptr %3, align 4
  br label %10

10:                                               ; preds = %4, %8
  %.0 = phi i32 [ 1, %8 ], [ 0, %4 ]
  ret i32 %.0
}